; Function Attrs: nounwind uwtable
define dso_local void @ic_set_prompt_marker(ptr noundef readonly %0, ptr noundef readonly %1) local_unnamed_addr #0 {
  %3 = load ptr, ptr @rpenv, align 8, !tbaa !108
  %4 = icmp eq ptr %3, null
  br i1 %4, label %5, label %ic_get_env.exit.thread4

5:                                                ; preds = %2
  %6 = tail call fastcc ptr @ic_env_create(ptr noundef null, ptr noundef null, ptr noundef null)
  store ptr %6, ptr @rpenv, align 8, !tbaa !108
  %.not.i = icmp eq ptr %6, null
  br i1 %.not.i, label %ic_get_env.exit.thread, label %ic_get_env.exit

ic_get_env.exit:                                  ; preds = %5
  %7 = tail call i32 @atexit(ptr noundef nonnull @ic_atexit) #32
  %.pre.i = load ptr, ptr @rpenv, align 8, !tbaa !108
  %8 = icmp eq ptr %.pre.i, null
  br i1 %8, label %ic_get_env.exit.thread, label %ic_get_env.exit.thread4

ic_get_env.exit.thread4:                          ; preds = %2, %ic_get_env.exit
  %9 = phi ptr [ %.pre.i, %ic_get_env.exit ], [ %3, %2 ]
  %10 = icmp eq ptr %0, null
  %spec.store.select.i = select i1 %10, ptr @.str.415, ptr %0
  %11 = icmp eq ptr %1, null
  %spec.select.i = select i1 %11, ptr %spec.store.select.i, ptr %1
  %12 = load ptr, ptr %9, align 8, !tbaa !78
  %13 = getelementptr inbounds nuw i8, ptr %9, i64 56
  %14 = load ptr, ptr %13, align 8, !tbaa !128
  %15 = getelementptr i8, ptr %12, i64 16
  %.val14.i = load ptr, ptr %15, align 8, !tbaa !44
  tail call void %.val14.i(ptr noundef %14) #32
  %16 = load ptr, ptr %9, align 8, !tbaa !78
  %17 = getelementptr inbounds nuw i8, ptr %9, i64 64
  %18 = load ptr, ptr %17, align 8, !tbaa !138
  %19 = getelementptr i8, ptr %16, i64 16
  %.val.i = load ptr, ptr %19, align 8, !tbaa !44
  tail call void %.val.i(ptr noundef %18) #32
  %20 = load ptr, ptr %9, align 8, !tbaa !78
  %21 = tail call i64 @strlen(ptr noundef nonnull readonly dereferenceable(1) %spec.store.select.i) #33
  %22 = tail call noundef range(i64 0, -9223372036854775808) i64 @llvm.smax.i64(i64 %21, i64 0)
  %23 = add nuw nsw i64 %22, 1
  %.val.i.i = load ptr, ptr %20, align 8, !tbaa !30
  %24 = tail call ptr %.val.i.i(i64 noundef %23) #32
  %25 = icmp eq ptr %24, null
  br i1 %25, label %mem_strdup.exit.i, label %ic_memcpy.exit.i.i

ic_memcpy.exit.i.i:                               ; preds = %ic_get_env.exit.thread4
  tail call void @llvm.memcpy.p0.p0.i64(ptr noundef nonnull align 1 dereferenceable(1) %24, ptr noundef nonnull readonly align 1 dereferenceable(1) %spec.store.select.i, i64 %23, i1 false)
  br label %mem_strdup.exit.i

mem_strdup.exit.i:                                ; preds = %ic_memcpy.exit.i.i, %ic_get_env.exit.thread4
  store ptr %24, ptr %13, align 8, !tbaa !128
  %26 = load ptr, ptr %9, align 8, !tbaa !78
  %27 = tail call i64 @strlen(ptr noundef nonnull readonly dereferenceable(1) %spec.select.i) #33
  %28 = tail call noundef range(i64 0, -9223372036854775808) i64 @llvm.smax.i64(i64 %27, i64 0)
  %29 = add nuw nsw i64 %28, 1
  %.val.i15.i = load ptr, ptr %26, align 8, !tbaa !30
  %30 = tail call ptr %.val.i15.i(i64 noundef %29) #32
  %31 = icmp eq ptr %30, null
  br i1 %31, label %set_prompt_marker.exit, label %ic_memcpy.exit.i16.i

ic_memcpy.exit.i16.i:                             ; preds = %mem_strdup.exit.i
  tail call void @llvm.memcpy.p0.p0.i64(ptr noundef nonnull align 1 dereferenceable(1) %30, ptr noundef nonnull readonly align 1 dereferenceable(1) %spec.select.i, i64 %29, i1 false)
  br label %set_prompt_marker.exit

set_prompt_marker.exit:                           ; preds = %mem_strdup.exit.i, %ic_memcpy.exit.i16.i
  store ptr %30, ptr %17, align 8, !tbaa !138
  br label %ic_get_env.exit.thread

ic_get_env.exit.thread:                           ; preds = %5, %ic_get_env.exit, %set_prompt_marker.exit
  ret void
}